; Function Attrs: mustprogress uwtable
define hidden void @_ZN2cv10BriskLayer14getAgastPointsEiRSt6vectorINS_8KeyPointESaIS2_EE(ptr noundef nonnull align 8 dereferenceable(416) %0, i32 noundef %1, ptr noundef nonnull align 8 dereferenceable(24) %2) local_unnamed_addr #13 align 2 personality ptr @__gxx_personality_v0 {
  %4 = alloca %"class.cv::_InputArray", align 8
  %5 = getelementptr inbounds i8, ptr %0, i64 200
  %6 = load ptr, ptr %5, align 8
  %7 = load ptr, ptr %6, align 8
  %8 = getelementptr inbounds i8, ptr %7, i64 128
  %9 = load ptr, ptr %8, align 8
  tail call void %9(ptr noundef nonnull align 8 dereferenceable(8) %6, i32 noundef %1)
  %10 = load ptr, ptr %5, align 8
  %11 = getelementptr inbounds i8, ptr %4, i64 16
  store i32 0, ptr %11, align 8
  %12 = getelementptr inbounds i8, ptr %4, i64 20
  store i32 0, ptr %12, align 4
  store i32 16842752, ptr %4, align 8
  %13 = getelementptr inbounds i8, ptr %4, i64 8
  store ptr %0, ptr %13, align 8
  %14 = tail call noundef nonnull align 8 dereferenceable(24) ptr @_ZN2cv7noArrayEv()
  %15 = load ptr, ptr %10, align 8
  %16 = getelementptr inbounds i8, ptr %15, i64 64
  %17 = load ptr, ptr %16, align 8
  call void %17(ptr noundef nonnull align 8 dereferenceable(8) %10, ptr noundef nonnull align 8 dereferenceable(24) %4, ptr noundef nonnull align 8 dereferenceable(24) %2, ptr noundef nonnull align 8 dereferenceable(24) %14)
  %18 = getelementptr inbounds i8, ptr %2, i64 8
  %19 = load ptr, ptr %18, align 8
  %20 = load ptr, ptr %2, align 8
  %.not = icmp eq ptr %19, %20
  br i1 %.not, label %._crit_edge, label %.lr.ph

.lr.ph:                                           ; preds = %3
  %21 = ptrtoint ptr %19 to i64
  %22 = ptrtoint ptr %20 to i64
  %23 = sub i64 %21, %22
  %24 = sdiv exact i64 %23, 28
  %25 = getelementptr inbounds i8, ptr %0, i64 112
  %26 = getelementptr inbounds i8, ptr %0, i64 168
  %umax = call i64 @llvm.umax.i64(i64 %24, i64 1)
  br label %27

27:                                               ; preds = %.lr.ph, %27
  %.014 = phi i64 [ 0, %.lr.ph ], [ %50, %27 ]
  %28 = load ptr, ptr %2, align 8
  %29 = getelementptr inbounds %"class.cv::KeyPoint", ptr %28, i64 %.014
  %30 = getelementptr inbounds i8, ptr %29, i64 16
  %31 = load float, ptr %30, align 4
  %32 = insertelement <4 x float> poison, float %31, i64 0
  %33 = call noundef i32 @llvm.x86.sse.cvtss2si(<4 x float> %32)
  %34 = call i32 @llvm.smax.i32(i32 %33, i32 0)
  %35 = call i32 @llvm.umin.i32(i32 %34, i32 255)
  %36 = trunc nuw i32 %35 to i8
  %37 = getelementptr inbounds i8, ptr %29, i64 4
  %38 = load float, ptr %37, align 4
  %39 = fptosi float %38 to i32
  %40 = load float, ptr %29, align 4
  %41 = fptosi float %40 to i32
  %42 = load ptr, ptr %25, align 8
  %43 = load ptr, ptr %26, align 8
  %44 = load i64, ptr %43, align 8
  %45 = sext i32 %39 to i64
  %46 = mul i64 %44, %45
  %47 = getelementptr inbounds i8, ptr %42, i64 %46
  %48 = sext i32 %41 to i64
  %49 = getelementptr inbounds i8, ptr %47, i64 %48
  store i8 %36, ptr %49, align 1
  %50 = add nuw i64 %.014, 1
  %exitcond.not = icmp eq i64 %50, %umax
  br i1 %exitcond.not, label %._crit_edge, label %27, !llvm.loop !49

._crit_edge:                                      ; preds = %27, %3
  ret void
}